target datalayout = "e-m:e-p270:32:32-p271:32:32-p272:64:64-i64:64-i128:128-f80:128-n8:16:32:64-S128"
target triple = "x86_64-pc-linux-gnu"

%struct.llama_sampler = type { ptr, ptr }
%struct.llama_sampler_logit_bias = type { i32, %"class.std::vector.41", %"class.std::vector.41" }
%"class.std::vector.41" = type { %"struct.std::_Vector_base.42" }
%"struct.std::_Vector_base.42" = type { %"struct.std::_Vector_base<llama_logit_bias, std::allocator<llama_logit_bias>>::_Vector_impl" }
%"struct.std::_Vector_base<llama_logit_bias, std::allocator<llama_logit_bias>>::_Vector_impl" = type { %"struct.std::_Vector_base<llama_logit_bias, std::allocator<llama_logit_bias>>::_Vector_impl_data" }
%"struct.std::_Vector_base<llama_logit_bias, std::allocator<llama_logit_bias>>::_Vector_impl_data" = type { ptr, ptr, ptr }

; Function Attrs: mustprogress nounwind uwtable
define linkonce_odr noundef ptr @_ZNKSt6vectorI16llama_logit_biasSaIS0_EE11_M_data_ptrIS0_EEPT_S5_(ptr noundef nonnull align 8 dereferenceable(24) %0, ptr noundef %1) #6 comdat align 2 {
  %3 = alloca ptr, align 8
  %4 = alloca ptr, align 8
  store ptr %0, ptr %3, align 8, !tbaa !226
  store ptr %1, ptr %4, align 8, !tbaa !216
  %5 = load ptr, ptr %4, align 8, !tbaa !216
  ret ptr %5
}

; Function Attrs: mustprogress nounwind uwtable
define linkonce_odr noundef ptr @_ZNKSt6vectorI16llama_logit_biasSaIS0_EE4dataEv(ptr noundef nonnull align 8 dereferenceable(24) %0) #6 comdat align 2 {
  %2 = alloca ptr, align 8
  store ptr %0, ptr %2, align 8, !tbaa !226
  %3 = load ptr, ptr %2, align 8
  %4 = getelementptr inbounds nuw %"struct.std::_Vector_base.42", ptr %3, i32 0, i32 0
  %5 = getelementptr inbounds nuw %"struct.std::_Vector_base<llama_logit_bias, std::allocator<llama_logit_bias>>::_Vector_impl_data", ptr %4, i32 0, i32 0
  %6 = load ptr, ptr %5, align 8, !tbaa !819
  %7 = call noundef ptr @_ZNKSt6vectorI16llama_logit_biasSaIS0_EE11_M_data_ptrIS0_EEPT_S5_(ptr noundef nonnull align 8 dereferenceable(24) %3, ptr noundef %6) #14
  ret ptr %7
}

; Function Attrs: mustprogress nounwind uwtable
define linkonce_odr noundef i64 @_ZNKSt6vectorI16llama_logit_biasSaIS0_EE4sizeEv(ptr noundef nonnull align 8 dereferenceable(24) %0) #6 comdat align 2 {
  %2 = alloca ptr, align 8
  store ptr %0, ptr %2, align 8, !tbaa !226
  %3 = load ptr, ptr %2, align 8
  %4 = getelementptr inbounds nuw %"struct.std::_Vector_base.42", ptr %3, i32 0, i32 0
  %5 = getelementptr inbounds nuw %"struct.std::_Vector_base<llama_logit_bias, std::allocator<llama_logit_bias>>::_Vector_impl_data", ptr %4, i32 0, i32 1
  %6 = load ptr, ptr %5, align 8, !tbaa !824
  %7 = getelementptr inbounds nuw %"struct.std::_Vector_base.42", ptr %3, i32 0, i32 0
  %8 = getelementptr inbounds nuw %"struct.std::_Vector_base<llama_logit_bias, std::allocator<llama_logit_bias>>::_Vector_impl_data", ptr %7, i32 0, i32 0
  %9 = load ptr, ptr %8, align 8, !tbaa !819
  %10 = ptrtoint ptr %6 to i64
  %11 = ptrtoint ptr %9 to i64
  %12 = sub i64 %10, %11
  %13 = sdiv exact i64 %12, 8
  ret i64 %13
}

; Function Attrs: mustprogress uwtable
define internal noundef ptr @_ZL30llama_sampler_logit_bias_clonePK13llama_sampler(ptr noundef %0) #0 {
  %2 = alloca ptr, align 8
  %3 = alloca ptr, align 8
  store ptr %0, ptr %2, align 8, !tbaa !12
  call void @llvm.lifetime.start.p0(i64 8, ptr %3) #14
  %4 = load ptr, ptr %2, align 8, !tbaa !12
  %5 = getelementptr inbounds nuw %struct.llama_sampler, ptr %4, i32 0, i32 1
  %6 = load ptr, ptr %5, align 8, !tbaa !11
  store ptr %6, ptr %3, align 8, !tbaa !813
  %7 = load ptr, ptr %3, align 8, !tbaa !813
  %8 = getelementptr inbounds nuw %struct.llama_sampler_logit_bias, ptr %7, i32 0, i32 0
  %9 = load i32, ptr %8, align 8, !tbaa !218
  %10 = load ptr, ptr %3, align 8, !tbaa !813
  %11 = getelementptr inbounds nuw %struct.llama_sampler_logit_bias, ptr %10, i32 0, i32 1
  %12 = call noundef i64 @_ZNKSt6vectorI16llama_logit_biasSaIS0_EE4sizeEv(ptr noundef nonnull align 8 dereferenceable(24) %11) #14
  %13 = trunc i64 %12 to i32
  %14 = load ptr, ptr %3, align 8, !tbaa !813
  %15 = getelementptr inbounds nuw %struct.llama_sampler_logit_bias, ptr %14, i32 0, i32 1
  %16 = call noundef ptr @_ZNKSt6vectorI16llama_logit_biasSaIS0_EE4dataEv(ptr noundef nonnull align 8 dereferenceable(24) %15) #14
  %17 = call ptr @llama_sampler_init_logit_bias(i32 noundef %9, i32 noundef %13, ptr noundef %16)
  call void @llvm.lifetime.end.p0(i64 8, ptr %3) #14
  ret ptr %17
}