; Function Attrs: mustprogress uwtable
define internal noalias noundef nonnull ptr @_ZL30llama_sampler_logit_bias_clonePK13llama_sampler(ptr noundef readonly captures(none) %0) #0 {
  %2 = getelementptr inbounds nuw i8, ptr %0, i64 8
  %3 = load ptr, ptr %2, align 8, !tbaa !9
  %4 = load i32, ptr %3, align 8, !tbaa !174
  %5 = getelementptr inbounds nuw i8, ptr %3, i64 8
  %6 = getelementptr inbounds nuw i8, ptr %3, i64 16
  %7 = load ptr, ptr %6, align 8, !tbaa !183
  %8 = load ptr, ptr %5, align 8, !tbaa !182
  %9 = ptrtoint ptr %7 to i64
  %10 = ptrtoint ptr %8 to i64
  %11 = sub i64 %9, %10
  %12 = lshr exact i64 %11, 3
  %13 = trunc i64 %12 to i32
  %14 = tail call ptr @llama_sampler_init_logit_bias(i32 noundef %4, i32 noundef %13, ptr noundef %8)
  ret ptr %14
}